target datalayout = "e-m:e-p270:32:32-p271:32:32-p272:64:64-i64:64-i128:128-f80:128-n8:16:32:64-S128"
target triple = "x86_64-unknown-linux-gnu"

%struct.MemoryRegionOps = type { ptr, ptr, ptr, ptr, i32, %struct.anon, %struct.anon.4 }
%struct.anon = type { i32, i32, i8, ptr }
%struct.anon.4 = type { i32, i32, i8 }
%struct.TPCI200State = type { %struct.PCIDevice, %struct.IPackBus, %struct.MemoryRegion, %struct.MemoryRegion, %struct.MemoryRegion, %struct.MemoryRegion, %struct.MemoryRegion, %struct.MemoryRegion, [3 x i8], [4 x i8], i16, i8 }
%struct.PCIDevice = type { %struct.DeviceState, i8, i8, ptr, ptr, ptr, ptr, ptr, i32, %struct.PCIReqIDCache, [64 x i8], [7 x %struct.PCIIORegion], %struct.AddressSpace, %struct.MemoryRegion, %struct.MemoryRegion, ptr, ptr, [3 x ptr], i8, i8, i32, i8, i32, ptr, ptr, ptr, ptr, ptr, ptr, %struct.MemoryRegion, %struct.MemoryRegion, %struct.MemoryRegion, ptr, i8, i32, i8, %struct.PCIExpressDevice, ptr, ptr, i32, i8, %struct.MemoryRegion, i32, ptr, ptr, ptr, ptr, ptr, i32 }
%struct.DeviceState = type { %struct.Object, ptr, ptr, i8, i8, i64, ptr, i32, i8, ptr, %struct.NamedGPIOListHead, %struct.NamedClockListHead, %struct.BusStateHead, i32, i32, i32, %struct.ResettableState, ptr, %struct.MemReentrancyGuard }
%struct.Object = type { ptr, ptr, ptr, i32, ptr }
%struct.NamedGPIOListHead = type { ptr }
%struct.NamedClockListHead = type { ptr }
%struct.BusStateHead = type { ptr }
%struct.ResettableState = type { i32, i8, i8 }
%struct.MemReentrancyGuard = type { i8 }
%struct.PCIReqIDCache = type { ptr, i32 }
%struct.PCIIORegion = type { i64, i64, i8, ptr, ptr }
%struct.AddressSpace = type { %struct.rcu_head, ptr, ptr, ptr, i32, i32, ptr, %union.anon, %union.anon.0 }
%struct.rcu_head = type { ptr, ptr }
%union.anon = type { %struct.QTailQLink }
%struct.QTailQLink = type { ptr, ptr }
%union.anon.0 = type { %struct.QTailQLink }
%struct.PCIExpressDevice = type { i8, i8, i8, i16, %struct.PCIEAERLog, i16, i16, i16, %struct.PCIESriovPF, %struct.PCIESriovVF }
%struct.PCIEAERLog = type { i16, i16, ptr }
%struct.PCIESriovPF = type { i16, [7 x i8], ptr, ptr }
%struct.PCIESriovVF = type { ptr, i16 }
%struct.IPackBus = type { %struct.BusState, i8, i8, ptr }
%struct.BusState = type { %struct.Object, ptr, ptr, ptr, i32, i8, i8, i32, %union.BusChildHead, %struct.BusStateEntry, %struct.ResettableState }
%union.BusChildHead = type { %struct.QTailQLink }
%struct.BusStateEntry = type { ptr, ptr }
%struct.MemoryRegion = type { %struct.Object, i8, i8, i8, i8, i8, i8, i8, i8, i8, i8, ptr, ptr, ptr, ptr, ptr, ptr, i32, i128, i64, ptr, i64, i8, i8, i8, i8, i8, ptr, i64, i32, %union.anon.1, %union.anon.2, %union.anon.3, ptr, i32, ptr, ptr, i8 }
%union.anon.1 = type { %struct.QTailQLink }
%union.anon.2 = type { %struct.QTailQLink }
%union.anon.3 = type { %struct.QTailQLink }

@.str = private unnamed_addr constant [8 x i8] c"tpci200\00", align 1
@.str.4 = private unnamed_addr constant [7 x i8] c"device\00", align 1
@.str.5 = private unnamed_addr constant [101 x i8] c"/home/dtcxzyw/WorkSpace/Projects/compilers/llvm-opt-benchmark/bench/qemu/qemu/include/hw/qdev-core.h\00", align 1
@tpci200_cfg_ops = internal constant %struct.MemoryRegionOps { ptr @tpci200_read_cfg, ptr @tpci200_write_cfg, ptr null, ptr null, i32 0, %struct.anon { i32 1, i32 4, i8 0, ptr null }, %struct.anon.4 { i32 1, i32 1, i8 0 } }, align 8
@.str.7 = private unnamed_addr constant [13 x i8] c"tpci200_mmio\00", align 1
@.str.8 = private unnamed_addr constant [11 x i8] c"tpci200_io\00", align 1
@tpci200_las0_ops = internal constant %struct.MemoryRegionOps { ptr @tpci200_read_las0, ptr @tpci200_write_las0, ptr null, ptr null, i32 0, %struct.anon { i32 2, i32 2, i8 0, ptr null }, %struct.anon.4 zeroinitializer }, align 8
@.str.9 = private unnamed_addr constant [13 x i8] c"tpci200_las0\00", align 1
@tpci200_las1_ops = internal constant %struct.MemoryRegionOps { ptr @tpci200_read_las1, ptr @tpci200_write_las1, ptr null, ptr null, i32 0, %struct.anon { i32 1, i32 2, i8 0, ptr null }, %struct.anon.4 zeroinitializer }, align 8
@.str.10 = private unnamed_addr constant [13 x i8] c"tpci200_las1\00", align 1
@tpci200_las2_ops = internal constant %struct.MemoryRegionOps { ptr @tpci200_read_las2, ptr @tpci200_write_las2, ptr null, ptr null, i32 0, %struct.anon { i32 1, i32 2, i8 0, ptr null }, %struct.anon.4 zeroinitializer }, align 8
@.str.11 = private unnamed_addr constant [13 x i8] c"tpci200_las2\00", align 1
@tpci200_las3_ops = internal constant %struct.MemoryRegionOps { ptr @tpci200_read_las3, ptr @tpci200_write_las3, ptr null, ptr null, i32 0, %struct.anon { i32 1, i32 1, i8 0, ptr null }, %struct.anon.4 zeroinitializer }, align 8
@.str.12 = private unnamed_addr constant [13 x i8] c"tpci200_las3\00", align 1
@.str.13 = private unnamed_addr constant [27 x i8] c"../qemu/hw/ipack/tpci200.c\00", align 1
@__func__.TPCI200 = private unnamed_addr constant [8 x i8] c"TPCI200\00", align 1
@__func__.DEVICE = private unnamed_addr constant [7 x i8] c"DEVICE\00", align 1

; Function Attrs: nounwind sspstrong uwtable
define internal void @stl_he_p(ptr noundef %ptr, i32 noundef %v) #0 {
entry:
  %ptr.addr = alloca ptr, align 8
  %v.addr = alloca i32, align 4
  store ptr %ptr, ptr %ptr.addr, align 8
  store i32 %v, ptr %v.addr, align 4
  %0 = load ptr, ptr %ptr.addr, align 8
  call void @llvm.memcpy.p0.p0.i64(ptr align 1 %0, ptr align 4 %v.addr, i64 4, i1 false)
  ret void
}

; Function Attrs: nounwind sspstrong uwtable
define internal void @stw_he_p(ptr noundef %ptr, i16 noundef zeroext %v) #0 {
entry:
  %ptr.addr = alloca ptr, align 8
  %v.addr = alloca i16, align 2
  store ptr %ptr, ptr %ptr.addr, align 8
  store i16 %v, ptr %v.addr, align 2
  %0 = load ptr, ptr %ptr.addr, align 8
  call void @llvm.memcpy.p0.p0.i64(ptr align 1 %0, ptr align 2 %v.addr, i64 2, i1 false)
  ret void
}

; Function Attrs: nounwind sspstrong uwtable
define internal void @stl_le_p(ptr noundef %ptr, i32 noundef %v) #0 {
entry:
  %ptr.addr = alloca ptr, align 8
  %v.addr = alloca i32, align 4
  store ptr %ptr, ptr %ptr.addr, align 8
  store i32 %v, ptr %v.addr, align 4
  %0 = load ptr, ptr %ptr.addr, align 8
  %1 = load i32, ptr %v.addr, align 4
  call void @stl_he_p(ptr noundef %0, i32 noundef %1)
  ret void
}

; Function Attrs: nounwind sspstrong uwtable
define internal void @stw_le_p(ptr noundef %ptr, i16 noundef zeroext %v) #0 {
entry:
  %ptr.addr = alloca ptr, align 8
  %v.addr = alloca i16, align 2
  store ptr %ptr, ptr %ptr.addr, align 8
  store i16 %v, ptr %v.addr, align 2
  %0 = load ptr, ptr %ptr.addr, align 8
  %1 = load i16, ptr %v.addr, align 2
  call void @stw_he_p(ptr noundef %0, i16 noundef zeroext %1)
  ret void
}

; Function Attrs: nounwind sspstrong uwtable
define internal ptr @DEVICE(ptr noundef %obj) #0 {
entry:
  %obj.addr = alloca ptr, align 8
  store ptr %obj, ptr %obj.addr, align 8
  %0 = load ptr, ptr %obj.addr, align 8
  %call = call ptr @object_dynamic_cast_assert(ptr noundef %0, ptr noundef @.str.4, ptr noundef @.str.5, i32 noundef 77, ptr noundef @__func__.DEVICE)
  ret ptr %call
}

; Function Attrs: nounwind sspstrong uwtable
define internal void @pci_set_long(ptr noundef %config, i32 noundef %val) #0 {
entry:
  %config.addr = alloca ptr, align 8
  %val.addr = alloca i32, align 4
  store ptr %config, ptr %config.addr, align 8
  store i32 %val, ptr %val.addr, align 4
  %0 = load ptr, ptr %config.addr, align 8
  %1 = load i32, ptr %val.addr, align 4
  call void @stl_le_p(ptr noundef %0, i32 noundef %1)
  ret void
}

; Function Attrs: nounwind sspstrong uwtable
define internal void @pci_set_byte(ptr noundef %config, i8 noundef zeroext %val) #0 {
entry:
  %config.addr = alloca ptr, align 8
  %val.addr = alloca i8, align 1
  store ptr %config, ptr %config.addr, align 8
  store i8 %val, ptr %val.addr, align 1
  %0 = load i8, ptr %val.addr, align 1
  %1 = load ptr, ptr %config.addr, align 8
  store i8 %0, ptr %1, align 1
  ret void
}

; Function Attrs: nounwind sspstrong uwtable
define internal void @pci_set_word(ptr noundef %config, i16 noundef zeroext %val) #0 {
entry:
  %config.addr = alloca ptr, align 8
  %val.addr = alloca i16, align 2
  store ptr %config, ptr %config.addr, align 8
  store i16 %val, ptr %val.addr, align 2
  %0 = load ptr, ptr %config.addr, align 8
  %1 = load i16, ptr %val.addr, align 2
  call void @stw_le_p(ptr noundef %0, i16 noundef zeroext %1)
  ret void
}

; Function Attrs: nounwind sspstrong uwtable
define internal ptr @TPCI200(ptr noundef %obj) #0 {
entry:
  %obj.addr = alloca ptr, align 8
  store ptr %obj, ptr %obj.addr, align 8
  %0 = load ptr, ptr %obj.addr, align 8
  %call = call ptr @object_dynamic_cast_assert(ptr noundef %0, ptr noundef @.str, ptr noundef @.str.13, i32 noundef 75, ptr noundef @__func__.TPCI200)
  ret ptr %call
}

; Function Attrs: nounwind sspstrong uwtable
define internal void @tpci200_realize(ptr noundef %pci_dev, ptr noundef %errp) #0 {
entry:
  %pci_dev.addr = alloca ptr, align 8
  %errp.addr = alloca ptr, align 8
  %s = alloca ptr, align 8
  %c = alloca ptr, align 8
  store ptr %pci_dev, ptr %pci_dev.addr, align 8
  store ptr %errp, ptr %errp.addr, align 8
  %0 = load ptr, ptr %pci_dev.addr, align 8
  %call = call ptr @TPCI200(ptr noundef %0)
  store ptr %call, ptr %s, align 8
  %1 = load ptr, ptr %s, align 8
  %dev = getelementptr inbounds %struct.TPCI200State, ptr %1, i32 0, i32 0
  %config = getelementptr inbounds %struct.PCIDevice, ptr %dev, i32 0, i32 3
  %2 = load ptr, ptr %config, align 8
  store ptr %2, ptr %c, align 8
  %3 = load ptr, ptr %c, align 8
  %add.ptr = getelementptr i8, ptr %3, i64 4
  call void @pci_set_word(ptr noundef %add.ptr, i16 noundef zeroext 3)
  %4 = load ptr, ptr %c, align 8
  %add.ptr1 = getelementptr i8, ptr %4, i64 6
  call void @pci_set_word(ptr noundef %add.ptr1, i16 noundef zeroext 640)
  %5 = load ptr, ptr %c, align 8
  %add.ptr2 = getelementptr i8, ptr %5, i64 61
  call void @pci_set_byte(ptr noundef %add.ptr2, i8 noundef zeroext 1)
  %6 = load ptr, ptr %c, align 8
  %add.ptr3 = getelementptr i8, ptr %6, i64 52
  call void @pci_set_byte(ptr noundef %add.ptr3, i8 noundef zeroext 64)
  %7 = load ptr, ptr %c, align 8
  %add.ptr4 = getelementptr i8, ptr %7, i64 64
  call void @pci_set_long(ptr noundef %add.ptr4, i32 noundef 1208043521)
  %8 = load ptr, ptr %c, align 8
  %add.ptr5 = getelementptr i8, ptr %8, i64 72
  call void @pci_set_long(ptr noundef %add.ptr5, i32 noundef 150534)
  %9 = load ptr, ptr %c, align 8
  %add.ptr6 = getelementptr i8, ptr %9, i64 76
  call void @pci_set_long(ptr noundef %add.ptr6, i32 noundef 3)
  %10 = load ptr, ptr %s, align 8
  %mmio = getelementptr inbounds %struct.TPCI200State, ptr %10, i32 0, i32 2
  %11 = load ptr, ptr %s, align 8
  %12 = load ptr, ptr %s, align 8
  call void @memory_region_init_io(ptr noundef %mmio, ptr noundef %11, ptr noundef @tpci200_cfg_ops, ptr noundef %12, ptr noundef @.str.7, i64 noundef 128)
  %13 = load ptr, ptr %s, align 8
  %io = getelementptr inbounds %struct.TPCI200State, ptr %13, i32 0, i32 3
  %14 = load ptr, ptr %s, align 8
  %15 = load ptr, ptr %s, align 8
  call void @memory_region_init_io(ptr noundef %io, ptr noundef %14, ptr noundef @tpci200_cfg_ops, ptr noundef %15, ptr noundef @.str.8, i64 noundef 128)
  %16 = load ptr, ptr %s, align 8
  %las0 = getelementptr inbounds %struct.TPCI200State, ptr %16, i32 0, i32 4
  %17 = load ptr, ptr %s, align 8
  %18 = load ptr, ptr %s, align 8
  call void @memory_region_init_io(ptr noundef %las0, ptr noundef %17, ptr noundef @tpci200_las0_ops, ptr noundef %18, ptr noundef @.str.9, i64 noundef 256)
  %19 = load ptr, ptr %s, align 8
  %las1 = getelementptr inbounds %struct.TPCI200State, ptr %19, i32 0, i32 5
  %20 = load ptr, ptr %s, align 8
  %21 = load ptr, ptr %s, align 8
  call void @memory_region_init_io(ptr noundef %las1, ptr noundef %20, ptr noundef @tpci200_las1_ops, ptr noundef %21, ptr noundef @.str.10, i64 noundef 1024)
  %22 = load ptr, ptr %s, align 8
  %las2 = getelementptr inbounds %struct.TPCI200State, ptr %22, i32 0, i32 6
  %23 = load ptr, ptr %s, align 8
  %24 = load ptr, ptr %s, align 8
  call void @memory_region_init_io(ptr noundef %las2, ptr noundef %23, ptr noundef @tpci200_las2_ops, ptr noundef %24, ptr noundef @.str.11, i64 noundef 33554432)
  %25 = load ptr, ptr %s, align 8
  %las3 = getelementptr inbounds %struct.TPCI200State, ptr %25, i32 0, i32 7
  %26 = load ptr, ptr %s, align 8
  %27 = load ptr, ptr %s, align 8
  call void @memory_region_init_io(ptr noundef %las3, ptr noundef %26, ptr noundef @tpci200_las3_ops, ptr noundef %27, ptr noundef @.str.12, i64 noundef 16777216)
  %28 = load ptr, ptr %s, align 8
  %dev7 = getelementptr inbounds %struct.TPCI200State, ptr %28, i32 0, i32 0
  %29 = load ptr, ptr %s, align 8
  %mmio8 = getelementptr inbounds %struct.TPCI200State, ptr %29, i32 0, i32 2
  call void @pci_register_bar(ptr noundef %dev7, i32 noundef 0, i8 noundef zeroext 0, ptr noundef %mmio8)
  %30 = load ptr, ptr %s, align 8
  %dev9 = getelementptr inbounds %struct.TPCI200State, ptr %30, i32 0, i32 0
  %31 = load ptr, ptr %s, align 8
  %io10 = getelementptr inbounds %struct.TPCI200State, ptr %31, i32 0, i32 3
  call void @pci_register_bar(ptr noundef %dev9, i32 noundef 1, i8 noundef zeroext 1, ptr noundef %io10)
  %32 = load ptr, ptr %s, align 8
  %dev11 = getelementptr inbounds %struct.TPCI200State, ptr %32, i32 0, i32 0
  %33 = load ptr, ptr %s, align 8
  %las012 = getelementptr inbounds %struct.TPCI200State, ptr %33, i32 0, i32 4
  call void @pci_register_bar(ptr noundef %dev11, i32 noundef 2, i8 noundef zeroext 0, ptr noundef %las012)
  %34 = load ptr, ptr %s, align 8
  %dev13 = getelementptr inbounds %struct.TPCI200State, ptr %34, i32 0, i32 0
  %35 = load ptr, ptr %s, align 8
  %las114 = getelementptr inbounds %struct.TPCI200State, ptr %35, i32 0, i32 5
  call void @pci_register_bar(ptr noundef %dev13, i32 noundef 3, i8 noundef zeroext 0, ptr noundef %las114)
  %36 = load ptr, ptr %s, align 8
  %dev15 = getelementptr inbounds %struct.TPCI200State, ptr %36, i32 0, i32 0
  %37 = load ptr, ptr %s, align 8
  %las216 = getelementptr inbounds %struct.TPCI200State, ptr %37, i32 0, i32 6
  call void @pci_register_bar(ptr noundef %dev15, i32 noundef 4, i8 noundef zeroext 0, ptr noundef %las216)
  %38 = load ptr, ptr %s, align 8
  %dev17 = getelementptr inbounds %struct.TPCI200State, ptr %38, i32 0, i32 0
  %39 = load ptr, ptr %s, align 8
  %las318 = getelementptr inbounds %struct.TPCI200State, ptr %39, i32 0, i32 7
  call void @pci_register_bar(ptr noundef %dev17, i32 noundef 5, i8 noundef zeroext 0, ptr noundef %las318)
  %40 = load ptr, ptr %s, align 8
  %bus = getelementptr inbounds %struct.TPCI200State, ptr %40, i32 0, i32 1
  %41 = load ptr, ptr %pci_dev.addr, align 8
  %call19 = call ptr @DEVICE(ptr noundef %41)
  call void @ipack_bus_init(ptr noundef %bus, i64 noundef 136, ptr noundef %call19, i8 noundef zeroext 4, ptr noundef @tpci200_set_irq)
  ret void
}