; Function Attrs: nounwind sspstrong uwtable
define internal void @tpci200_realize(ptr noundef %pci_dev, ptr readnone captures(none) %errp) #0 {
entry:
  %call.i = tail call ptr @object_dynamic_cast_assert(ptr noundef %pci_dev, ptr noundef nonnull @.str, ptr noundef nonnull @.str.13, i32 noundef 75, ptr noundef nonnull @__func__.TPCI200) #6
  %config = getelementptr inbounds nuw i8, ptr %call.i, i64 168
  %0 = load ptr, ptr %config, align 8
  %add.ptr = getelementptr i8, ptr %0, i64 4
  store i16 3, ptr %add.ptr, align 1
  %add.ptr1 = getelementptr i8, ptr %0, i64 6
  store i16 640, ptr %add.ptr1, align 1
  %add.ptr2 = getelementptr i8, ptr %0, i64 61
  store i8 1, ptr %add.ptr2, align 1
  %add.ptr3 = getelementptr i8, ptr %0, i64 52
  store i8 64, ptr %add.ptr3, align 1
  %add.ptr4 = getelementptr i8, ptr %0, i64 64
  store i32 1208043521, ptr %add.ptr4, align 1
  %add.ptr5 = getelementptr i8, ptr %0, i64 72
  store i32 150534, ptr %add.ptr5, align 1
  %add.ptr6 = getelementptr i8, ptr %0, i64 76
  store i32 3, ptr %add.ptr6, align 1
  %mmio = getelementptr inbounds nuw i8, ptr %call.i, i64 2752
  tail call void @memory_region_init_io(ptr noundef nonnull %mmio, ptr noundef %call.i, ptr noundef nonnull @tpci200_cfg_ops, ptr noundef %call.i, ptr noundef nonnull @.str.7, i64 noundef 128) #6
  %io = getelementptr inbounds nuw i8, ptr %call.i, i64 3024
  tail call void @memory_region_init_io(ptr noundef nonnull %io, ptr noundef %call.i, ptr noundef nonnull @tpci200_cfg_ops, ptr noundef %call.i, ptr noundef nonnull @.str.8, i64 noundef 128) #6
  %las0 = getelementptr inbounds nuw i8, ptr %call.i, i64 3296
  tail call void @memory_region_init_io(ptr noundef nonnull %las0, ptr noundef %call.i, ptr noundef nonnull @tpci200_las0_ops, ptr noundef %call.i, ptr noundef nonnull @.str.9, i64 noundef 256) #6
  %las1 = getelementptr inbounds nuw i8, ptr %call.i, i64 3568
  tail call void @memory_region_init_io(ptr noundef nonnull %las1, ptr noundef %call.i, ptr noundef nonnull @tpci200_las1_ops, ptr noundef %call.i, ptr noundef nonnull @.str.10, i64 noundef 1024) #6
  %las2 = getelementptr inbounds nuw i8, ptr %call.i, i64 3840
  tail call void @memory_region_init_io(ptr noundef nonnull %las2, ptr noundef %call.i, ptr noundef nonnull @tpci200_las2_ops, ptr noundef %call.i, ptr noundef nonnull @.str.11, i64 noundef 33554432) #6
  %las3 = getelementptr inbounds nuw i8, ptr %call.i, i64 4112
  tail call void @memory_region_init_io(ptr noundef nonnull %las3, ptr noundef %call.i, ptr noundef nonnull @tpci200_las3_ops, ptr noundef %call.i, ptr noundef nonnull @.str.12, i64 noundef 16777216) #6
  tail call void @pci_register_bar(ptr noundef %call.i, i32 noundef 0, i8 noundef zeroext 0, ptr noundef nonnull %mmio) #6
  tail call void @pci_register_bar(ptr noundef %call.i, i32 noundef 1, i8 noundef zeroext 1, ptr noundef nonnull %io) #6
  tail call void @pci_register_bar(ptr noundef %call.i, i32 noundef 2, i8 noundef zeroext 0, ptr noundef nonnull %las0) #6
  tail call void @pci_register_bar(ptr noundef %call.i, i32 noundef 3, i8 noundef zeroext 0, ptr noundef nonnull %las1) #6
  tail call void @pci_register_bar(ptr noundef %call.i, i32 noundef 4, i8 noundef zeroext 0, ptr noundef nonnull %las2) #6
  tail call void @pci_register_bar(ptr noundef %call.i, i32 noundef 5, i8 noundef zeroext 0, ptr noundef nonnull %las3) #6
  %bus = getelementptr inbounds nuw i8, ptr %call.i, i64 2608
  %call.i39 = tail call ptr @object_dynamic_cast_assert(ptr noundef %pci_dev, ptr noundef nonnull @.str.4, ptr noundef nonnull @.str.5, i32 noundef 77, ptr noundef nonnull @__func__.DEVICE) #6
  tail call void @ipack_bus_init(ptr noundef nonnull %bus, i64 noundef 136, ptr noundef %call.i39, i8 noundef zeroext 4, ptr noundef nonnull @tpci200_set_irq) #6
  ret void
}